; Function Attrs: mustprogress nounwind uwtable
define hidden void @_ZN6OopMap16set_callee_savedEP9VMRegImplS1_(ptr nocapture noundef nonnull align 8 dereferenceable(32) %0, ptr noundef %1, ptr noundef %2) local_unnamed_addr #2 align 2 {
  %4 = alloca %class.OopMapValue, align 2
  call void @llvm.lifetime.start.p0(i64 4, ptr nonnull %4)
  %5 = ptrtoint ptr %1 to i64
  %6 = trunc i64 %5 to i16
  %.tr = sub i16 %6, ptrtoint (ptr getelementptr inbounds (i8, ptr @all_VMRegs, i64 1) to i16)
  %7 = shl i16 %.tr, 2
  %8 = or disjoint i16 %7, 2
  store i16 %8, ptr %4, align 2
  %9 = ptrtoint ptr %2 to i64
  %10 = trunc i64 %9 to i16
  %11 = sub i16 %10, ptrtoint (ptr getelementptr inbounds (i8, ptr @all_VMRegs, i64 1) to i16)
  %12 = getelementptr inbounds i8, ptr %4, i64 2
  store i16 %11, ptr %12, align 2
  %13 = getelementptr inbounds i8, ptr %0, i64 24
  %14 = load ptr, ptr %13, align 8
  call void @_ZN11OopMapValue8write_onEP21CompressedWriteStream(ptr noundef nonnull align 2 dereferenceable(4) %4, ptr noundef %14)
  %15 = getelementptr inbounds i8, ptr %0, i64 4
  %16 = load i32, ptr %15, align 4
  %17 = add nsw i32 %16, 1
  store i32 %17, ptr %15, align 4
  call void @llvm.lifetime.end.p0(i64 4, ptr nonnull %4)
  ret void
}